; ModuleID = '25/1308.cpp'
source_filename = "25/1308.cpp"
target datalayout = "e-m:e-p270:32:32-p271:32:32-p272:64:64-i64:64-f80:128-n8:16:32:64-S128"
target triple = "x86_64-pc-linux-gnu"

%"class.std::ios_base::Init" = type { i8 }
%"class.std::basic_istream" = type { i32 (...)**, i64, %"class.std::basic_ios" }
%"class.std::basic_ios" = type { %"class.std::ios_base", %"class.std::basic_ostream"*, i8, i8, %"class.std::basic_streambuf"*, %"class.std::ctype"*, %"class.std::num_put"*, %"class.std::num_get"* }
%"class.std::ios_base" = type { i32 (...)**, i64, i64, i32, i32, i32, %"struct.std::ios_base::_Callback_list"*, %"struct.std::ios_base::_Words", [8 x %"struct.std::ios_base::_Words"], i32, %"struct.std::ios_base::_Words"*, %"class.std::locale" }
%"struct.std::ios_base::_Callback_list" = type { %"struct.std::ios_base::_Callback_list"*, void (i32, %"class.std::ios_base"*, i32)*, i32, i32 }
%"struct.std::ios_base::_Words" = type { i8*, i64 }
%"class.std::locale" = type { %"class.std::locale::_Impl"* }
%"class.std::locale::_Impl" = type { i32, %"class.std::locale::facet"**, i64, %"class.std::locale::facet"**, i8** }
%"class.std::locale::facet" = type <{ i32 (...)**, i32, [4 x i8] }>
%"class.std::basic_ostream" = type { i32 (...)**, %"class.std::basic_ios" }
%"class.std::basic_streambuf" = type { i32 (...)**, i8*, i8*, i8*, i8*, i8*, i8*, %"class.std::locale" }
%"class.std::ctype" = type <{ %"class.std::locale::facet.base", [4 x i8], %struct.__locale_struct*, i8, [7 x i8], i32*, i32*, i16*, i8, [256 x i8], [256 x i8], i8, [6 x i8] }>
%"class.std::locale::facet.base" = type <{ i32 (...)**, i32 }>
%struct.__locale_struct = type { [13 x %struct.__locale_data*], i16*, i32*, i32*, [13 x i8*] }
%struct.__locale_data = type opaque
%"class.std::num_put" = type { %"class.std::locale::facet.base", [4 x i8] }
%"class.std::num_get" = type { %"class.std::locale::facet.base", [4 x i8] }

@_ZStL8__ioinit = internal global %"class.std::ios_base::Init" zeroinitializer, align 1
@__dso_handle = external hidden global i8
@_ZSt3cin = external dso_local global %"class.std::basic_istream", align 8
@_ZSt4cout = external dso_local global %"class.std::basic_ostream", align 8
@llvm.global_ctors = appending global [1 x { i32, void ()*, i8* }] [{ i32, void ()*, i8* } { i32 65535, void ()* @_GLOBAL__sub_I_1308.cpp, i8* null }]

; Function Attrs: noinline uwtable
define internal void @__cxx_global_var_init() #0 section ".text.startup" {
  call void @_ZNSt8ios_base4InitC1Ev(%"class.std::ios_base::Init"* @_ZStL8__ioinit)
  %1 = call i32 @__cxa_atexit(void (i8*)* bitcast (void (%"class.std::ios_base::Init"*)* @_ZNSt8ios_base4InitD1Ev to void (i8*)*), i8* getelementptr inbounds (%"class.std::ios_base::Init", %"class.std::ios_base::Init"* @_ZStL8__ioinit, i32 0, i32 0), i8* @__dso_handle) #3
  ret void
}

declare dso_local void @_ZNSt8ios_base4InitC1Ev(%"class.std::ios_base::Init"*) unnamed_addr #1

; Function Attrs: nounwind
declare dso_local void @_ZNSt8ios_base4InitD1Ev(%"class.std::ios_base::Init"*) unnamed_addr #2

; Function Attrs: nounwind
declare dso_local i32 @__cxa_atexit(void (i8*)*, i8*, i8*) #3

; Function Attrs: noinline norecurse uwtable
define dso_local i32 @main() #4 {
  %1 = alloca i32, align 4
  %2 = alloca i32, align 4
  %3 = alloca [500 x double], align 16
  %4 = alloca i32, align 4
  %5 = alloca i32, align 4
  %6 = alloca i32, align 4
  %7 = alloca i32, align 4
  store i32 0, i32* %1, align 4
  %8 = bitcast [500 x double]* %3 to i8*
  call void @llvm.memset.p0i8.i64(i8* align 16 %8, i8 0, i64 4000, i1 false)
  %9 = call dereferenceable(280) %"class.std::basic_istream"* @_ZNSirsERi(%"class.std::basic_istream"* @_ZSt3cin, i32* dereferenceable(4) %2)
  %10 = getelementptr inbounds [500 x double], [500 x double]* %3, i64 0, i64 0
  store double 1.000000e+00, double* %10, align 16
  store i32 1, i32* %4, align 4
  br label %11

11:                                               ; preds = %75, %0
  %12 = load i32, i32* %4, align 4
  %13 = load i32, i32* %2, align 4
  %14 = icmp sle i32 %12, %13
  br i1 %14, label %15, label %78

15:                                               ; preds = %11
  store i32 0, i32* %5, align 4
  br label %16

16:                                               ; preds = %71, %15
  %17 = load i32, i32* %5, align 4
  %18 = sext i32 %17 to i64
  %19 = getelementptr inbounds [500 x double], [500 x double]* %3, i64 0, i64 %18
  %20 = load double, double* %19, align 8
  %21 = fcmp oeq double %20, 0.000000e+00
  br i1 %21, label %22, label %37

22:                                               ; preds = %16
  %23 = load i32, i32* %5, align 4
  %24 = add nsw i32 %23, 1
  %25 = sext i32 %24 to i64
  %26 = getelementptr inbounds [500 x double], [500 x double]* %3, i64 0, i64 %25
  %27 = load double, double* %26, align 8
  %28 = fcmp oeq double %27, 0.000000e+00
  br i1 %28, label %29, label %37

29:                                               ; preds = %22
  %30 = load i32, i32* %5, align 4
  %31 = add nsw i32 %30, 2
  %32 = sext i32 %31 to i64
  %33 = getelementptr inbounds [500 x double], [500 x double]* %3, i64 0, i64 %32
  %34 = load double, double* %33, align 8
  %35 = fcmp oeq double %34, 0.000000e+00
  br i1 %35, label %36, label %37

36:                                               ; preds = %29
  br label %74

37:                                               ; preds = %29, %22, %16
  %38 = load i32, i32* %5, align 4
  %39 = sext i32 %38 to i64
  %40 = getelementptr inbounds [500 x double], [500 x double]* %3, i64 0, i64 %39
  %41 = load double, double* %40, align 8
  %42 = fmul double %41, 2.000000e+00
  %43 = load i32, i32* %5, align 4
  %44 = sext i32 %43 to i64
  %45 = getelementptr inbounds [500 x double], [500 x double]* %3, i64 0, i64 %44
  store double %42, double* %45, align 8
  %46 = load i32, i32* %5, align 4
  %47 = sext i32 %46 to i64
  %48 = getelementptr inbounds [500 x double], [500 x double]* %3, i64 0, i64 %47
  %49 = load double, double* %48, align 8
  %50 = fcmp oge double %49, 1.000000e+01
  br i1 %50, label %51, label %70

51:                                               ; preds = %37
  %52 = load i32, i32* %5, align 4
  %53 = sext i32 %52 to i64
  %54 = getelementptr inbounds [500 x double], [500 x double]* %3, i64 0, i64 %53
  %55 = load double, double* %54, align 8
  %56 = fsub double %55, 1.000000e+01
  %57 = load i32, i32* %5, align 4
  %58 = sext i32 %57 to i64
  %59 = getelementptr inbounds [500 x double], [500 x double]* %3, i64 0, i64 %58
  store double %56, double* %59, align 8
  %60 = load i32, i32* %5, align 4
  %61 = add nsw i32 %60, 1
  %62 = sext i32 %61 to i64
  %63 = getelementptr inbounds [500 x double], [500 x double]* %3, i64 0, i64 %62
  %64 = load double, double* %63, align 8
  %65 = fadd double %64, 5.000000e-01
  %66 = load i32, i32* %5, align 4
  %67 = add nsw i32 %66, 1
  %68 = sext i32 %67 to i64
  %69 = getelementptr inbounds [500 x double], [500 x double]* %3, i64 0, i64 %68
  store double %65, double* %69, align 8
  br label %70

70:                                               ; preds = %51, %37
  br label %71

71:                                               ; preds = %70
  %72 = load i32, i32* %5, align 4
  %73 = add nsw i32 %72, 1
  store i32 %73, i32* %5, align 4
  br label %16

74:                                               ; preds = %36
  br label %75

75:                                               ; preds = %74
  %76 = load i32, i32* %4, align 4
  %77 = add nsw i32 %76, 1
  store i32 %77, i32* %4, align 4
  br label %11

78:                                               ; preds = %11
  store i32 499, i32* %6, align 4
  br label %79

79:                                               ; preds = %104, %78
  %80 = load i32, i32* %6, align 4
  %81 = icmp sge i32 %80, 0
  br i1 %81, label %82, label %107

82:                                               ; preds = %79
  %83 = load i32, i32* %6, align 4
  %84 = sext i32 %83 to i64
  %85 = getelementptr inbounds [500 x double], [500 x double]* %3, i64 0, i64 %84
  %86 = load double, double* %85, align 8
  %87 = fcmp une double %86, 0.000000e+00
  br i1 %87, label %88, label %103

88:                                               ; preds = %82
  %89 = load i32, i32* %6, align 4
  store i32 %89, i32* %7, align 4
  br label %90

90:                                               ; preds = %99, %88
  %91 = load i32, i32* %7, align 4
  %92 = icmp sge i32 %91, 0
  br i1 %92, label %93, label %102

93:                                               ; preds = %90
  %94 = load i32, i32* %7, align 4
  %95 = sext i32 %94 to i64
  %96 = getelementptr inbounds [500 x double], [500 x double]* %3, i64 0, i64 %95
  %97 = load double, double* %96, align 8
  %98 = call dereferenceable(272) %"class.std::basic_ostream"* @_ZNSolsEd(%"class.std::basic_ostream"* @_ZSt4cout, double %97)
  br label %99

99:                                               ; preds = %93
  %100 = load i32, i32* %7, align 4
  %101 = add nsw i32 %100, -1
  store i32 %101, i32* %7, align 4
  br label %90

102:                                              ; preds = %90
  br label %107

103:                                              ; preds = %82
  br label %104

104:                                              ; preds = %103
  %105 = load i32, i32* %6, align 4
  %106 = add nsw i32 %105, -1
  store i32 %106, i32* %6, align 4
  br label %79

107:                                              ; preds = %102, %79
  ret i32 0
}

; Function Attrs: argmemonly nounwind willreturn
declare void @llvm.memset.p0i8.i64(i8* nocapture writeonly, i8, i64, i1 immarg) #5

declare dso_local dereferenceable(280) %"class.std::basic_istream"* @_ZNSirsERi(%"class.std::basic_istream"*, i32* dereferenceable(4)) #1

declare dso_local dereferenceable(272) %"class.std::basic_ostream"* @_ZNSolsEd(%"class.std::basic_ostream"*, double) #1

; Function Attrs: noinline uwtable
define internal void @_GLOBAL__sub_I_1308.cpp() #0 section ".text.startup" {
  call void @__cxx_global_var_init()
  ret void
}


!llvm.module.flags = !{!0}
!llvm.ident = !{!1}

!0 = !{i32 1, !"wchar_size", i32 4}
!1 = !{!"clang version 10.0.0-4ubuntu1 "}
